target datalayout = "e-m:e-p270:32:32-p271:32:32-p272:64:64-i64:64-i128:128-f80:128-n8:16:32:64-S128"
target triple = "x86_64-pc-linux-gnu"

%struct.SDL_AtomicInt = type { i32 }
%struct.SDL_AudioStream = type { ptr, i32, ptr, ptr, ptr, ptr, %struct.SDL_AudioSpec, %struct.SDL_AudioSpec, ptr, ptr, float, float, ptr, %struct.SDL_AudioSpec, ptr, [8 x i32], i64, ptr, i64, i8, ptr, ptr, ptr, ptr, ptr }
%struct.SDL_AudioSpec = type { i32, i32, i32 }
%struct.SDL_AudioDevice = type { ptr, ptr, %struct.SDL_AtomicInt, ptr, ptr, ptr, ptr, ptr, ptr, ptr, i32, ptr, %struct.SDL_AudioSpec, i32, ptr, %struct.SDL_AudioSpec, i32, i32, %struct.SDL_AtomicInt, %struct.SDL_AtomicInt, i8, i8, ptr, ptr, ptr, i32, ptr, i8, ptr, ptr }
%struct.SDL_LogicalAudioDevice = type { i32, ptr, %struct.SDL_AtomicInt, float, ptr, i8, i8, ptr, ptr, ptr, ptr, ptr, ptr, ptr }

; Function Attrs: nounwind uwtable
define hidden ptr @SDL_OpenAudioDeviceStream_REAL(i32 noundef %0, ptr noundef %1, ptr noundef %2, ptr noundef %3) #0 {
  %5 = alloca ptr, align 8
  %6 = alloca i32, align 4
  %7 = alloca ptr, align 8
  %8 = alloca ptr, align 8
  %9 = alloca ptr, align 8
  %10 = alloca i32, align 4
  %11 = alloca i32, align 4
  %12 = alloca i8, align 1
  %13 = alloca ptr, align 8
  %14 = alloca ptr, align 8
  %15 = alloca ptr, align 8
  %16 = alloca i8, align 1
  %17 = alloca %struct.SDL_AudioSpec, align 4
  %18 = alloca i8, align 1
  store i32 %0, ptr %6, align 4
  store ptr %1, ptr %7, align 8
  store ptr %2, ptr %8, align 8
  store ptr %3, ptr %9, align 8
  call void @llvm.lifetime.start.p0(i64 4, ptr %10) #6
  %19 = load i32, ptr %6, align 4
  %20 = load ptr, ptr %7, align 8
  %21 = call i32 @SDL_OpenAudioDevice_REAL(i32 noundef %19, ptr noundef %20)
  store i32 %21, ptr %10, align 4
  %22 = load i32, ptr %10, align 4
  %23 = icmp ne i32 %22, 0
  br i1 %23, label %25, label %24

24:                                               ; preds = %4
  store ptr null, ptr %5, align 8
  store i32 1, ptr %11, align 4
  br label %109

25:                                               ; preds = %4
  call void @llvm.lifetime.start.p0(i64 1, ptr %12) #6
  store i8 0, ptr %12, align 1
  call void @llvm.lifetime.start.p0(i64 8, ptr %13) #6
  store ptr null, ptr %13, align 8
  call void @llvm.lifetime.start.p0(i64 8, ptr %14) #6
  store ptr null, ptr %14, align 8
  call void @llvm.lifetime.start.p0(i64 8, ptr %15) #6
  %26 = load i32, ptr %10, align 4
  %27 = call ptr @ObtainLogicalAudioDevice(i32 noundef %26, ptr noundef %14)
  store ptr %27, ptr %15, align 8
  %28 = load ptr, ptr %15, align 8
  %29 = icmp ne ptr %28, null
  br i1 %29, label %31, label %30

30:                                               ; preds = %25
  store i8 1, ptr %12, align 1
  br label %100

31:                                               ; preds = %25
  %32 = load ptr, ptr %15, align 8
  %33 = getelementptr inbounds nuw %struct.SDL_LogicalAudioDevice, ptr %32, i32 0, i32 2
  %34 = call i32 @SDL_SetAtomicInt_REAL(ptr noundef %33, i32 noundef 1)
  br label %35

35:                                               ; preds = %31
  br label %36

36:                                               ; preds = %35
  br label %37

37:                                               ; preds = %36
  call void @llvm.lifetime.start.p0(i64 1, ptr %16) #6
  %38 = load ptr, ptr %14, align 8
  %39 = getelementptr inbounds nuw %struct.SDL_AudioDevice, ptr %38, i32 0, i32 20
  %40 = load i8, ptr %39, align 4, !range !5, !noundef !6
  %41 = trunc i8 %40 to i1
  %42 = zext i1 %41 to i8
  store i8 %42, ptr %16, align 1
  call void @llvm.lifetime.start.p0(i64 12, ptr %17) #6
  %43 = load ptr, ptr %7, align 8
  %44 = icmp ne ptr %43, null
  br i1 %44, label %48, label %45

45:                                               ; preds = %37
  %46 = load ptr, ptr %14, align 8
  %47 = getelementptr inbounds nuw %struct.SDL_AudioDevice, ptr %46, i32 0, i32 12
  call void @llvm.memcpy.p0.p0.i64(ptr align 4 %17, ptr align 8 %47, i64 12, i1 false)
  store ptr %17, ptr %7, align 8
  br label %48

48:                                               ; preds = %45, %37
  %49 = load i8, ptr %16, align 1, !range !5, !noundef !6
  %50 = trunc i8 %49 to i1
  br i1 %50, label %51, label %56

51:                                               ; preds = %48
  %52 = load ptr, ptr %14, align 8
  %53 = getelementptr inbounds nuw %struct.SDL_AudioDevice, ptr %52, i32 0, i32 12
  %54 = load ptr, ptr %7, align 8
  %55 = call ptr @SDL_CreateAudioStream_REAL(ptr noundef %53, ptr noundef %54)
  store ptr %55, ptr %13, align 8
  br label %61

56:                                               ; preds = %48
  %57 = load ptr, ptr %7, align 8
  %58 = load ptr, ptr %14, align 8
  %59 = getelementptr inbounds nuw %struct.SDL_AudioDevice, ptr %58, i32 0, i32 12
  %60 = call ptr @SDL_CreateAudioStream_REAL(ptr noundef %57, ptr noundef %59)
  store ptr %60, ptr %13, align 8
  br label %61

61:                                               ; preds = %56, %51
  %62 = load ptr, ptr %13, align 8
  %63 = icmp ne ptr %62, null
  br i1 %63, label %65, label %64

64:                                               ; preds = %61
  store i8 1, ptr %12, align 1
  br label %99

65:                                               ; preds = %61
  %66 = load ptr, ptr %13, align 8
  %67 = load ptr, ptr %15, align 8
  %68 = getelementptr inbounds nuw %struct.SDL_LogicalAudioDevice, ptr %67, i32 0, i32 4
  store ptr %66, ptr %68, align 8
  %69 = load ptr, ptr %15, align 8
  %70 = getelementptr inbounds nuw %struct.SDL_LogicalAudioDevice, ptr %69, i32 0, i32 6
  store i8 1, ptr %70, align 1
  %71 = load ptr, ptr %15, align 8
  %72 = load ptr, ptr %13, align 8
  %73 = getelementptr inbounds nuw %struct.SDL_AudioStream, ptr %72, i32 0, i32 20
  store ptr %71, ptr %73, align 8
  %74 = load ptr, ptr %13, align 8
  %75 = getelementptr inbounds nuw %struct.SDL_AudioStream, ptr %74, i32 0, i32 19
  store i8 1, ptr %75, align 8
  %76 = load ptr, ptr %14, align 8
  call void @UpdateAudioStreamFormatsPhysical(ptr noundef %76)
  %77 = load ptr, ptr %8, align 8
  %78 = icmp ne ptr %77, null
  br i1 %78, label %79, label %98

79:                                               ; preds = %65
  call void @llvm.lifetime.start.p0(i64 1, ptr %18) #6
  %80 = load i8, ptr %16, align 1, !range !5, !noundef !6
  %81 = trunc i8 %80 to i1
  br i1 %81, label %82, label %88

82:                                               ; preds = %79
  %83 = load ptr, ptr %13, align 8
  %84 = load ptr, ptr %8, align 8
  %85 = load ptr, ptr %9, align 8
  %86 = call zeroext i1 @SDL_SetAudioStreamPutCallback_REAL(ptr noundef %83, ptr noundef %84, ptr noundef %85)
  %87 = zext i1 %86 to i8
  store i8 %87, ptr %18, align 1
  br label %94

88:                                               ; preds = %79
  %89 = load ptr, ptr %13, align 8
  %90 = load ptr, ptr %8, align 8
  %91 = load ptr, ptr %9, align 8
  %92 = call zeroext i1 @SDL_SetAudioStreamGetCallback_REAL(ptr noundef %89, ptr noundef %90, ptr noundef %91)
  %93 = zext i1 %92 to i8
  store i8 %93, ptr %18, align 1
  br label %94

94:                                               ; preds = %88, %82
  br label %95

95:                                               ; preds = %94
  br label %96

96:                                               ; preds = %95
  br label %97

97:                                               ; preds = %96
  call void @llvm.lifetime.end.p0(i64 1, ptr %18) #6
  br label %98

98:                                               ; preds = %97, %65
  br label %99

99:                                               ; preds = %98, %64
  call void @llvm.lifetime.end.p0(i64 12, ptr %17) #6
  call void @llvm.lifetime.end.p0(i64 1, ptr %16) #6
  br label %100

100:                                              ; preds = %99, %30
  %101 = load ptr, ptr %14, align 8
  call void @ReleaseAudioDevice(ptr noundef %101)
  %102 = load i8, ptr %12, align 1, !range !5, !noundef !6
  %103 = trunc i8 %102 to i1
  br i1 %103, label %104, label %107

104:                                              ; preds = %100
  %105 = load ptr, ptr %13, align 8
  call void @SDL_DestroyAudioStream_REAL(ptr noundef %105)
  %106 = load i32, ptr %10, align 4
  call void @SDL_CloseAudioDevice_REAL(i32 noundef %106)
  store ptr null, ptr %13, align 8
  br label %107

107:                                              ; preds = %104, %100
  %108 = load ptr, ptr %13, align 8
  store ptr %108, ptr %5, align 8
  store i32 1, ptr %11, align 4
  call void @llvm.lifetime.end.p0(i64 8, ptr %15) #6
  call void @llvm.lifetime.end.p0(i64 8, ptr %14) #6
  call void @llvm.lifetime.end.p0(i64 8, ptr %13) #6
  call void @llvm.lifetime.end.p0(i64 1, ptr %12) #6
  br label %109

109:                                              ; preds = %107, %24
  call void @llvm.lifetime.end.p0(i64 4, ptr %10) #6
  %110 = load ptr, ptr %5, align 8
  ret ptr %110
}