; Function Attrs: nounwind uwtable
define hidden ptr @SDL_OpenAudioDeviceStream_REAL(i32 noundef %0, ptr noundef %1, ptr noundef %2, ptr noundef %3) local_unnamed_addr #0 {
  %5 = alloca ptr, align 8
  %6 = alloca %struct.SDL_AudioSpec, align 4
  %7 = tail call i32 @SDL_OpenAudioDevice_REAL(i32 noundef %0, ptr noundef %1)
  %.not = icmp eq i32 %7, 0
  br i1 %.not, label %40, label %8

8:                                                ; preds = %4
  call void @llvm.lifetime.start.p0(i64 8, ptr nonnull %5) #14
  store ptr null, ptr %5, align 8
  %9 = call fastcc ptr @ObtainLogicalAudioDevice(i32 noundef %7, ptr noundef %5)
  %.not37 = icmp eq ptr %9, null
  br i1 %.not37, label %.thread, label %11

.thread:                                          ; preds = %8
  %10 = load ptr, ptr %5, align 8
  tail call fastcc void @ReleaseAudioDevice(ptr noundef %10)
  br label %38

11:                                               ; preds = %8
  %12 = getelementptr inbounds nuw i8, ptr %9, i64 16
  %13 = tail call i32 @SDL_SetAtomicInt_REAL(ptr noundef nonnull %12, i32 noundef 1) #14
  %14 = load ptr, ptr %5, align 8
  %15 = getelementptr inbounds nuw i8, ptr %14, i64 148
  %16 = load i8, ptr %15, align 4, !range !6, !noundef !7
  %17 = trunc nuw i8 %16 to i1
  call void @llvm.lifetime.start.p0(i64 12, ptr nonnull %6) #14
  %.not38 = icmp eq ptr %1, null
  br i1 %.not38, label %18, label %20

18:                                               ; preds = %11
  %19 = getelementptr inbounds nuw i8, ptr %14, i64 96
  call void @llvm.memcpy.p0.p0.i64(ptr noundef nonnull align 4 dereferenceable(12) %6, ptr noundef nonnull align 8 dereferenceable(12) %19, i64 12, i1 false)
  br label %20

20:                                               ; preds = %18, %11
  %.029 = phi ptr [ %1, %11 ], [ %6, %18 ]
  %21 = getelementptr inbounds nuw i8, ptr %14, i64 96
  br i1 %17, label %22, label %24

22:                                               ; preds = %20
  %23 = call ptr @SDL_CreateAudioStream_REAL(ptr noundef nonnull %21, ptr noundef nonnull %.029) #14
  br label %26

24:                                               ; preds = %20
  %25 = call ptr @SDL_CreateAudioStream_REAL(ptr noundef nonnull %.029, ptr noundef nonnull %21) #14
  br label %26

26:                                               ; preds = %24, %22
  %.1 = phi ptr [ %23, %22 ], [ %25, %24 ]
  %.not39 = icmp eq ptr %.1, null
  br i1 %.not39, label %37, label %27

27:                                               ; preds = %26
  %28 = getelementptr inbounds nuw i8, ptr %9, i64 24
  store ptr %.1, ptr %28, align 8
  %29 = getelementptr inbounds nuw i8, ptr %9, i64 33
  store i8 1, ptr %29, align 1
  %30 = getelementptr inbounds nuw i8, ptr %.1, i64 192
  store ptr %9, ptr %30, align 8
  %31 = getelementptr inbounds nuw i8, ptr %.1, i64 184
  store i8 1, ptr %31, align 8
  call fastcc void @UpdateAudioStreamFormatsPhysical(ptr noundef nonnull %14)
  %.not40 = icmp eq ptr %2, null
  br i1 %.not40, label %.thread44, label %32

32:                                               ; preds = %27
  br i1 %17, label %33, label %35

33:                                               ; preds = %32
  %34 = call zeroext i1 @SDL_SetAudioStreamPutCallback_REAL(ptr noundef nonnull %.1, ptr noundef nonnull %2, ptr noundef %3) #14
  br label %.thread44

35:                                               ; preds = %32
  %36 = call zeroext i1 @SDL_SetAudioStreamGetCallback_REAL(ptr noundef nonnull %.1, ptr noundef nonnull %2, ptr noundef %3) #14
  br label %.thread44

.thread44:                                        ; preds = %27, %33, %35
  call void @llvm.lifetime.end.p0(i64 12, ptr nonnull %6) #14
  call fastcc void @ReleaseAudioDevice(ptr noundef nonnull %14)
  br label %39

37:                                               ; preds = %26
  call void @llvm.lifetime.end.p0(i64 12, ptr nonnull %6) #14
  call fastcc void @ReleaseAudioDevice(ptr noundef nonnull %14)
  br label %38

38:                                               ; preds = %37, %.thread
  call void @SDL_DestroyAudioStream_REAL(ptr noundef null) #14
  call void @SDL_CloseAudioDevice_REAL(i32 noundef %7)
  br label %39

39:                                               ; preds = %.thread44, %38
  %.2 = phi ptr [ null, %38 ], [ %.1, %.thread44 ]
  call void @llvm.lifetime.end.p0(i64 8, ptr nonnull %5) #14
  br label %40

40:                                               ; preds = %4, %39
  %.0 = phi ptr [ %.2, %39 ], [ null, %4 ]
  ret ptr %.0
}